; Function Attrs: nounwind uwtable
define dso_local noundef ptr @RegisterSnapshotOnOwner(ptr noundef %0, ptr noundef %1) local_unnamed_addr #0 {
  %3 = icmp eq ptr %0, null
  br i1 %3, label %68, label %4

4:                                                ; preds = %2
  %5 = getelementptr inbounds nuw i8, ptr %0, i64 46
  %6 = load i8, ptr %5, align 2, !range !4, !noundef !5
  %7 = trunc nuw i8 %6 to i1
  br i1 %7, label %CopySnapshot.exit, label %8

8:                                                ; preds = %4
  %9 = getelementptr inbounds nuw i8, ptr %0, i64 24
  %10 = load i32, ptr %9, align 8
  %11 = zext i32 %10 to i64
  %12 = shl nuw nsw i64 %11, 2
  %13 = add nuw nsw i64 %12, 104
  %14 = getelementptr inbounds nuw i8, ptr %0, i64 40
  %15 = load i32, ptr %14, align 8
  %16 = icmp sgt i32 %15, 0
  %17 = zext nneg i32 %15 to i64
  %18 = add nuw nsw i64 %17, %11
  %19 = shl nuw nsw i64 %18, 2
  %20 = add nuw nsw i64 %19, 104
  %.0.i = select i1 %16, i64 %20, i64 %13
  %21 = load ptr, ptr @TopTransactionContext, align 8
  %22 = tail call ptr @MemoryContextAlloc(ptr noundef %21, i64 noundef %.0.i) #18
  tail call void @llvm.memcpy.p0.p0.i64(ptr noundef nonnull align 8 dereferenceable(104) %22, ptr noundef nonnull readonly align 8 dereferenceable(104) %0, i64 96, i1 false)
  %23 = getelementptr inbounds nuw i8, ptr %22, i64 68
  store i32 0, ptr %23, align 4
  %24 = getelementptr inbounds nuw i8, ptr %22, i64 64
  store i32 0, ptr %24, align 8
  %25 = getelementptr inbounds nuw i8, ptr %22, i64 46
  store i8 1, ptr %25, align 2
  %26 = getelementptr inbounds nuw i8, ptr %22, i64 96
  store i64 0, ptr %26, align 8
  %27 = load i32, ptr %9, align 8
  %.not.i = icmp eq i32 %27, 0
  br i1 %.not.i, label %36, label %28

28:                                               ; preds = %8
  %29 = getelementptr inbounds nuw i8, ptr %22, i64 104
  %30 = getelementptr inbounds nuw i8, ptr %22, i64 16
  store ptr %29, ptr %30, align 8
  %31 = getelementptr inbounds nuw i8, ptr %0, i64 16
  %32 = load ptr, ptr %31, align 8
  %33 = load i32, ptr %9, align 8
  %34 = zext i32 %33 to i64
  %35 = shl nuw nsw i64 %34, 2
  tail call void @llvm.memcpy.p0.p0.i64(ptr nonnull align 4 %29, ptr align 4 %32, i64 %35, i1 false)
  br label %38

36:                                               ; preds = %8
  %37 = getelementptr inbounds nuw i8, ptr %22, i64 16
  store ptr null, ptr %37, align 8
  br label %38

38:                                               ; preds = %36, %28
  %39 = load i32, ptr %14, align 8
  %40 = icmp sgt i32 %39, 0
  br i1 %40, label %41, label %57

41:                                               ; preds = %38
  %42 = getelementptr inbounds nuw i8, ptr %0, i64 44
  %43 = load i8, ptr %42, align 4, !range !4, !noundef !5
  %44 = trunc nuw i8 %43 to i1
  br i1 %44, label %45, label %49

45:                                               ; preds = %41
  %46 = getelementptr inbounds nuw i8, ptr %0, i64 45
  %47 = load i8, ptr %46, align 1, !range !4, !noundef !5
  %48 = trunc nuw i8 %47 to i1
  br i1 %48, label %49, label %57

49:                                               ; preds = %45, %41
  %50 = getelementptr inbounds nuw i8, ptr %22, i64 %13
  %51 = getelementptr inbounds nuw i8, ptr %22, i64 32
  store ptr %50, ptr %51, align 8
  %52 = getelementptr inbounds nuw i8, ptr %0, i64 32
  %53 = load ptr, ptr %52, align 8
  %54 = load i32, ptr %14, align 8
  %55 = sext i32 %54 to i64
  %56 = shl nsw i64 %55, 2
  tail call void @llvm.memcpy.p0.p0.i64(ptr nonnull align 4 %50, ptr align 4 %53, i64 %56, i1 false)
  br label %CopySnapshot.exit

57:                                               ; preds = %45, %38
  %58 = getelementptr inbounds nuw i8, ptr %22, i64 32
  store ptr null, ptr %58, align 8
  br label %CopySnapshot.exit

CopySnapshot.exit:                                ; preds = %57, %49, %4
  %59 = phi ptr [ %0, %4 ], [ %22, %49 ], [ %22, %57 ]
  tail call void @ResourceOwnerEnlarge(ptr noundef %1) #18
  %60 = getelementptr inbounds nuw i8, ptr %59, i64 68
  %61 = load i32, ptr %60, align 4
  %62 = add i32 %61, 1
  store i32 %62, ptr %60, align 4
  %63 = ptrtoint ptr %59 to i64
  tail call void @ResourceOwnerRemember(ptr noundef %1, i64 noundef %63, ptr noundef nonnull @snapshot_resowner_desc) #18
  %64 = load i32, ptr %60, align 4
  %65 = icmp eq i32 %64, 1
  br i1 %65, label %66, label %68

66:                                               ; preds = %CopySnapshot.exit
  %67 = getelementptr inbounds nuw i8, ptr %59, i64 72
  tail call void @pairingheap_add(ptr noundef nonnull @RegisteredSnapshots, ptr noundef nonnull %67) #18
  br label %68

68:                                               ; preds = %CopySnapshot.exit, %66, %2
  %.0 = phi ptr [ null, %2 ], [ %59, %66 ], [ %59, %CopySnapshot.exit ]
  ret ptr %.0
}